target datalayout = "e-m:e-p270:32:32-p271:32:32-p272:64:64-i64:64-i128:128-f80:128-n8:16:32:64-S128"
target triple = "x86_64-pc-linux-gnu"

%"class.toku::locktree_manager" = type { i64, i64, %"struct.toku::lt_counters", ptr, ptr, ptr, ptr, %"class.toku::omt", %"class.std::shared_ptr", %struct.toku_mutex_t, %struct.toku_mutex_t, i64, i64, i64, i64, i64, i64, i64, %"class.toku::locktree_manager::locktree_escalator" }
%"struct.toku::lt_counters" = type { i64, i64, i64, i64, i64 }
%"class.toku::omt" = type { i8, i32, %union.anon }
%union.anon = type { %"struct.toku::omt<toku::locktree *>::omt_array" }
%"struct.toku::omt<toku::locktree *>::omt_array" = type { i32, i32, ptr }
%"class.std::shared_ptr" = type { %"class.std::__shared_ptr" }
%"class.std::__shared_ptr" = type { ptr, %"class.std::__shared_count" }
%"class.std::__shared_count" = type { ptr }
%struct.toku_mutex_t = type { %union.pthread_mutex_t, ptr }
%union.pthread_mutex_t = type { %struct.__pthread_mutex_s }
%struct.__pthread_mutex_s = type { i32, i32, i32, i32, i32, i16, i16, %struct.__pthread_internal_list }
%struct.__pthread_internal_list = type { ptr, ptr }
%"class.toku::locktree_manager::locktree_escalator" = type <{ %struct.toku_mutex_t, %struct.toku_cond_t, i8, [7 x i8] }>
%struct.toku_cond_t = type { %union.pthread_cond_t, ptr }
%union.pthread_cond_t = type { %struct.__pthread_cond_s }
%struct.__pthread_cond_s = type { %union.__atomic_wide_counter, %union.__atomic_wide_counter, [2 x i32], [2 x i32], i32, i32, [2 x i32] }
%union.__atomic_wide_counter = type { i64 }
%struct.toku_mutex_instrumentation = type { i8 }
%struct.DICTIONARY_ID = type { i64 }
%"struct.toku::lt_lock_request_info" = type <{ %"class.toku::omt.0", %"struct.std::atomic", [7 x i8], %"class.std::shared_ptr.2", i8, [7 x i8], %"struct.toku::lt_counters", %"struct.std::atomic.5", i64, %struct.toku_mutex_t, %struct.toku_cond_t, i8, [7 x i8] }>
%"class.toku::omt.0" = type { i8, i32, %union.anon.1 }
%union.anon.1 = type { %"struct.toku::omt<toku::lock_request *>::omt_array" }
%"struct.toku::omt<toku::lock_request *>::omt_array" = type { i32, i32, ptr }
%"struct.std::atomic" = type { %"struct.std::__atomic_base" }
%"struct.std::__atomic_base" = type { i8 }
%"class.std::shared_ptr.2" = type { %"class.std::__shared_ptr.3" }
%"class.std::__shared_ptr.3" = type { ptr, %"class.std::__shared_count" }
%"struct.std::atomic.5" = type { %"struct.std::__atomic_base.6" }
%"struct.std::__atomic_base.6" = type { i64 }

@.str = private unnamed_addr constant [162 x i8] c"generated/home/dtcxzyw/WorkSpace/Projects/compilers/llvm-opt-benchmark/bench/rocksdb/rocksdb/utilities/transactions/lock/range/range_tree/lib/locktree/manager.cc\00", align 1

; Function Attrs: inlinehint mustprogress nounwind uwtable
define linkonce_odr void @_Z23toku_instr_mutex_unlockP9PSI_mutex(ptr noundef %0) #7 comdat {
  %2 = alloca ptr, align 8
  store ptr %0, ptr %2, align 8, !tbaa !152
  ret void
}

; Function Attrs: inlinehint mustprogress nounwind uwtable
define linkonce_odr void @_Z25toku_instr_mutex_lock_endR26toku_mutex_instrumentationi(ptr noundef nonnull align 1 dereferenceable(1) %0, i32 noundef %1) #7 comdat {
  %3 = alloca ptr, align 8
  %4 = alloca i32, align 4
  store ptr %0, ptr %3, align 8, !tbaa !150
  store i32 %1, ptr %4, align 4, !tbaa !40
  ret void
}

; Function Attrs: inlinehint mustprogress nounwind uwtable
define linkonce_odr void @_Z27toku_instr_mutex_lock_startR26toku_mutex_instrumentationR12toku_mutex_tPKci(ptr noundef nonnull align 1 dereferenceable(1) %0, ptr noundef nonnull align 8 dereferenceable(48) %1, ptr noundef %2, i32 noundef %3) #7 comdat {
  %5 = alloca ptr, align 8
  %6 = alloca ptr, align 8
  %7 = alloca ptr, align 8
  %8 = alloca i32, align 4
  store ptr %0, ptr %5, align 8, !tbaa !150
  store ptr %1, ptr %6, align 8, !tbaa !38
  store ptr %2, ptr %7, align 8, !tbaa !53
  store i32 %3, ptr %8, align 4, !tbaa !40
  ret void
}

; Function Attrs: inlinehint mustprogress uwtable
define linkonce_odr void @_Z17toku_mutex_unlockP12toku_mutex_t(ptr noundef %0) #3 comdat {
  %2 = alloca ptr, align 8
  %3 = alloca i32, align 4
  store ptr %0, ptr %2, align 8, !tbaa !38
  %4 = load ptr, ptr %2, align 8, !tbaa !38
  %5 = getelementptr inbounds nuw %struct.toku_mutex_t, ptr %4, i32 0, i32 1
  %6 = load ptr, ptr %5, align 8, !tbaa !55
  call void @_Z23toku_instr_mutex_unlockP9PSI_mutex(ptr noundef %6)
  call void @llvm.lifetime.start.p0(i64 4, ptr %3) #17
  %7 = load ptr, ptr %2, align 8, !tbaa !38
  %8 = getelementptr inbounds nuw %struct.toku_mutex_t, ptr %7, i32 0, i32 0
  %9 = call i32 @pthread_mutex_unlock(ptr noundef %8) #17
  store i32 %9, ptr %3, align 4, !tbaa !40
  call void @llvm.lifetime.end.p0(i64 4, ptr %3) #17
  ret void
}

; Function Attrs: inlinehint mustprogress uwtable
define linkonce_odr void @_Z36toku_mutex_lock_with_source_locationP12toku_mutex_tPKci(ptr noundef %0, ptr noundef %1, i32 noundef %2) #3 comdat {
  %4 = alloca ptr, align 8
  %5 = alloca ptr, align 8
  %6 = alloca i32, align 4
  %7 = alloca %struct.toku_mutex_instrumentation, align 1
  %8 = alloca i32, align 4
  store ptr %0, ptr %4, align 8, !tbaa !38
  store ptr %1, ptr %5, align 8, !tbaa !53
  store i32 %2, ptr %6, align 4, !tbaa !40
  call void @llvm.lifetime.start.p0(i64 1, ptr %7) #17
  %9 = load ptr, ptr %4, align 8, !tbaa !38
  %10 = load ptr, ptr %5, align 8, !tbaa !53
  %11 = load i32, ptr %6, align 4, !tbaa !40
  call void @_Z27toku_instr_mutex_lock_startR26toku_mutex_instrumentationR12toku_mutex_tPKci(ptr noundef nonnull align 1 dereferenceable(1) %7, ptr noundef nonnull align 8 dereferenceable(48) %9, ptr noundef %10, i32 noundef %11)
  call void @llvm.lifetime.start.p0(i64 4, ptr %8) #17
  %12 = load ptr, ptr %4, align 8, !tbaa !38
  %13 = getelementptr inbounds nuw %struct.toku_mutex_t, ptr %12, i32 0, i32 0
  %14 = call i32 @pthread_mutex_lock(ptr noundef %13) #17
  store i32 %14, ptr %8, align 4, !tbaa !40
  %15 = load i32, ptr %8, align 4, !tbaa !40
  call void @_Z25toku_instr_mutex_lock_endR26toku_mutex_instrumentationi(ptr noundef nonnull align 1 dereferenceable(1) %7, i32 noundef %15)
  call void @llvm.lifetime.end.p0(i64 4, ptr %8) #17
  call void @llvm.lifetime.end.p0(i64 1, ptr %7) #17
  ret void
}

; Function Attrs: mustprogress uwtable
define void @_ZN4toku16locktree_manager12mutex_unlockEv(ptr noundef nonnull align 8 dereferenceable(392) %0) #0 align 2 {
  %2 = alloca ptr, align 8
  store ptr %0, ptr %2, align 8, !tbaa !4
  %3 = load ptr, ptr %2, align 8
  %4 = getelementptr inbounds nuw %"class.toku::locktree_manager", ptr %3, i32 0, i32 9
  call void @_Z17toku_mutex_unlockP12toku_mutex_t(ptr noundef %4)
  ret void
}

; Function Attrs: mustprogress nounwind uwtable
define linkonce_odr void @_ZN4toku11lt_counters3addERKS0_(ptr noundef nonnull align 8 dereferenceable(40) %0, ptr noundef nonnull align 8 dereferenceable(40) %1) #1 comdat align 2 {
  %3 = alloca ptr, align 8
  %4 = alloca ptr, align 8
  store ptr %0, ptr %3, align 8, !tbaa !76
  store ptr %1, ptr %4, align 8, !tbaa !76
  %5 = load ptr, ptr %3, align 8
  %6 = load ptr, ptr %4, align 8, !tbaa !76
  %7 = getelementptr inbounds nuw %"struct.toku::lt_counters", ptr %6, i32 0, i32 0
  %8 = load i64, ptr %7, align 8, !tbaa !78
  %9 = getelementptr inbounds nuw %"struct.toku::lt_counters", ptr %5, i32 0, i32 0
  %10 = load i64, ptr %9, align 8, !tbaa !78
  %11 = add i64 %10, %8
  store i64 %11, ptr %9, align 8, !tbaa !78
  %12 = load ptr, ptr %4, align 8, !tbaa !76
  %13 = getelementptr inbounds nuw %"struct.toku::lt_counters", ptr %12, i32 0, i32 1
  %14 = load i64, ptr %13, align 8, !tbaa !79
  %15 = getelementptr inbounds nuw %"struct.toku::lt_counters", ptr %5, i32 0, i32 1
  %16 = load i64, ptr %15, align 8, !tbaa !79
  %17 = add i64 %16, %14
  store i64 %17, ptr %15, align 8, !tbaa !79
  %18 = load ptr, ptr %4, align 8, !tbaa !76
  %19 = getelementptr inbounds nuw %"struct.toku::lt_counters", ptr %18, i32 0, i32 2
  %20 = load i64, ptr %19, align 8, !tbaa !80
  %21 = getelementptr inbounds nuw %"struct.toku::lt_counters", ptr %5, i32 0, i32 2
  %22 = load i64, ptr %21, align 8, !tbaa !80
  %23 = add i64 %22, %20
  store i64 %23, ptr %21, align 8, !tbaa !80
  %24 = load ptr, ptr %4, align 8, !tbaa !76
  %25 = getelementptr inbounds nuw %"struct.toku::lt_counters", ptr %24, i32 0, i32 3
  %26 = load i64, ptr %25, align 8, !tbaa !81
  %27 = getelementptr inbounds nuw %"struct.toku::lt_counters", ptr %5, i32 0, i32 3
  %28 = load i64, ptr %27, align 8, !tbaa !81
  %29 = add i64 %28, %26
  store i64 %29, ptr %27, align 8, !tbaa !81
  %30 = load ptr, ptr %4, align 8, !tbaa !76
  %31 = getelementptr inbounds nuw %"struct.toku::lt_counters", ptr %30, i32 0, i32 4
  %32 = load i64, ptr %31, align 8, !tbaa !82
  %33 = getelementptr inbounds nuw %"struct.toku::lt_counters", ptr %5, i32 0, i32 4
  %34 = load i64, ptr %33, align 8, !tbaa !82
  %35 = add i64 %34, %32
  store i64 %35, ptr %33, align 8, !tbaa !82
  ret void
}

; Function Attrs: mustprogress uwtable
define void @_ZN4toku16locktree_manager19locktree_map_removeEPNS_8locktreeE(ptr noundef nonnull align 8 dereferenceable(392) %0, ptr noundef %1) #0 align 2 {
  %3 = alloca ptr, align 8
  %4 = alloca ptr, align 8
  %5 = alloca i32, align 4
  %6 = alloca ptr, align 8
  %7 = alloca i32, align 4
  %8 = alloca %struct.DICTIONARY_ID, align 8
  store ptr %0, ptr %3, align 8, !tbaa !4
  store ptr %1, ptr %4, align 8, !tbaa !62
  %9 = load ptr, ptr %3, align 8
  call void @llvm.lifetime.start.p0(i64 4, ptr %5) #17
  call void @llvm.lifetime.start.p0(i64 8, ptr %6) #17
  call void @llvm.lifetime.start.p0(i64 4, ptr %7) #17
  %10 = getelementptr inbounds nuw %"class.toku::locktree_manager", ptr %9, i32 0, i32 7
  call void @llvm.lifetime.start.p0(i64 8, ptr %8) #17
  %11 = load ptr, ptr %4, align 8, !tbaa !62
  %12 = call i64 @_ZNK4toku8locktree11get_dict_idEv(ptr noundef nonnull align 8 dereferenceable(400) %11)
  %13 = getelementptr inbounds nuw %struct.DICTIONARY_ID, ptr %8, i32 0, i32 0
  store i64 %12, ptr %13, align 8
  %14 = call noundef i32 @_ZNK4toku3omtIPNS_8locktreeES2_Lb0EE9find_zeroI13DICTIONARY_IDTnPFiRKS2_RKT_EXadL_ZNS_16locktree_manager15find_by_dict_idES7_RKS5_EEEEiSA_PS2_Pj(ptr noundef nonnull align 8 dereferenceable(24) %10, ptr noundef nonnull align 8 dereferenceable(8) %8, ptr noundef %6, ptr noundef %5)
  call void @llvm.lifetime.end.p0(i64 8, ptr %8) #17
  store i32 %14, ptr %7, align 4, !tbaa !40
  %15 = getelementptr inbounds nuw %"class.toku::locktree_manager", ptr %9, i32 0, i32 7
  %16 = load i32, ptr %5, align 4, !tbaa !40
  %17 = call noundef i32 @_ZN4toku3omtIPNS_8locktreeES2_Lb0EE9delete_atEj(ptr noundef nonnull align 8 dereferenceable(24) %15, i32 noundef %16)
  store i32 %17, ptr %7, align 4, !tbaa !40
  call void @llvm.lifetime.end.p0(i64 4, ptr %7) #17
  call void @llvm.lifetime.end.p0(i64 8, ptr %6) #17
  call void @llvm.lifetime.end.p0(i64 4, ptr %5) #17
  ret void
}

; Function Attrs: mustprogress uwtable
define noundef ptr @_ZN4toku16locktree_manager17locktree_map_findERK13DICTIONARY_ID(ptr noundef nonnull align 8 dereferenceable(392) %0, ptr noundef nonnull align 8 dereferenceable(8) %1) #0 align 2 {
  %3 = alloca ptr, align 8
  %4 = alloca ptr, align 8
  %5 = alloca ptr, align 8
  %6 = alloca i32, align 4
  store ptr %0, ptr %3, align 8, !tbaa !4
  store ptr %1, ptr %4, align 8, !tbaa !60
  %7 = load ptr, ptr %3, align 8
  call void @llvm.lifetime.start.p0(i64 8, ptr %5) #17
  call void @llvm.lifetime.start.p0(i64 4, ptr %6) #17
  %8 = getelementptr inbounds nuw %"class.toku::locktree_manager", ptr %7, i32 0, i32 7
  %9 = load ptr, ptr %4, align 8, !tbaa !60
  %10 = call noundef i32 @_ZNK4toku3omtIPNS_8locktreeES2_Lb0EE9find_zeroI13DICTIONARY_IDTnPFiRKS2_RKT_EXadL_ZNS_16locktree_manager15find_by_dict_idES7_RKS5_EEEEiSA_PS2_Pj(ptr noundef nonnull align 8 dereferenceable(24) %8, ptr noundef nonnull align 8 dereferenceable(8) %9, ptr noundef %5, ptr noundef null)
  store i32 %10, ptr %6, align 4, !tbaa !40
  %11 = load i32, ptr %6, align 4, !tbaa !40
  %12 = icmp eq i32 %11, 0
  br i1 %12, label %13, label %15

13:                                               ; preds = %2
  %14 = load ptr, ptr %5, align 8, !tbaa !62
  br label %16

15:                                               ; preds = %2
  br label %16

16:                                               ; preds = %15, %13
  %17 = phi ptr [ %14, %13 ], [ null, %15 ]
  call void @llvm.lifetime.end.p0(i64 4, ptr %6) #17
  call void @llvm.lifetime.end.p0(i64 8, ptr %5) #17
  ret ptr %17
}

; Function Attrs: mustprogress uwtable
define void @_ZN4toku16locktree_manager10mutex_lockEv(ptr noundef nonnull align 8 dereferenceable(392) %0) #0 align 2 {
  %2 = alloca ptr, align 8
  store ptr %0, ptr %2, align 8, !tbaa !4
  %3 = load ptr, ptr %2, align 8
  %4 = getelementptr inbounds nuw %"class.toku::locktree_manager", ptr %3, i32 0, i32 9
  call void @_Z36toku_mutex_lock_with_source_locationP12toku_mutex_tPKci(ptr noundef %4, ptr noundef @.str, i32 noundef 93)
  ret void
}

; Function Attrs: mustprogress uwtable
define void @_ZN4toku16locktree_manager10release_ltEPNS_8locktreeE(ptr noundef nonnull align 8 dereferenceable(392) %0, ptr noundef %1) #0 align 2 {
  %3 = alloca ptr, align 8
  %4 = alloca ptr, align 8
  %5 = alloca i8, align 1
  %6 = alloca %struct.DICTIONARY_ID, align 8
  %7 = alloca i32, align 4
  %8 = alloca ptr, align 8
  store ptr %0, ptr %3, align 8, !tbaa !4
  store ptr %1, ptr %4, align 8, !tbaa !62
  %9 = load ptr, ptr %3, align 8
  call void @llvm.lifetime.start.p0(i64 1, ptr %5) #17
  store i8 0, ptr %5, align 1, !tbaa !75
  call void @llvm.lifetime.start.p0(i64 8, ptr %6) #17
  %10 = load ptr, ptr %4, align 8, !tbaa !62
  %11 = call i64 @_ZNK4toku8locktree11get_dict_idEv(ptr noundef nonnull align 8 dereferenceable(400) %10)
  %12 = getelementptr inbounds nuw %struct.DICTIONARY_ID, ptr %6, i32 0, i32 0
  store i64 %11, ptr %12, align 8
  call void @llvm.lifetime.start.p0(i64 4, ptr %7) #17
  %13 = load ptr, ptr %4, align 8, !tbaa !62
  %14 = call noundef i32 @_ZN4toku8locktree17release_referenceEv(ptr noundef nonnull align 8 dereferenceable(400) %13)
  store i32 %14, ptr %7, align 4, !tbaa !40
  %15 = load i32, ptr %7, align 4, !tbaa !40
  %16 = icmp eq i32 %15, 0
  br i1 %16, label %17, label %38

17:                                               ; preds = %2
  call void @_ZN4toku16locktree_manager10mutex_lockEv(ptr noundef nonnull align 8 dereferenceable(392) %9)
  call void @llvm.lifetime.start.p0(i64 8, ptr %8) #17
  %18 = call noundef ptr @_ZN4toku16locktree_manager17locktree_map_findERK13DICTIONARY_ID(ptr noundef nonnull align 8 dereferenceable(392) %9, ptr noundef nonnull align 8 dereferenceable(8) %6)
  store ptr %18, ptr %8, align 8, !tbaa !62
  %19 = load ptr, ptr %8, align 8, !tbaa !62
  %20 = icmp ne ptr %19, null
  br i1 %20, label %21, label %37

21:                                               ; preds = %17
  %22 = load ptr, ptr %8, align 8, !tbaa !62
  %23 = load ptr, ptr %4, align 8, !tbaa !62
  %24 = icmp eq ptr %22, %23
  br i1 %24, label %25, label %36

25:                                               ; preds = %21
  %26 = load ptr, ptr %4, align 8, !tbaa !62
  %27 = call noundef i32 @_ZN4toku8locktree19get_reference_countEv(ptr noundef nonnull align 8 dereferenceable(400) %26)
  %28 = icmp eq i32 %27, 0
  br i1 %28, label %29, label %31

29:                                               ; preds = %25
  %30 = load ptr, ptr %4, align 8, !tbaa !62
  call void @_ZN4toku16locktree_manager19locktree_map_removeEPNS_8locktreeE(ptr noundef nonnull align 8 dereferenceable(392) %9, ptr noundef %30)
  store i8 1, ptr %5, align 1, !tbaa !75
  br label %31

31:                                               ; preds = %29, %25
  %32 = getelementptr inbounds nuw %"class.toku::locktree_manager", ptr %9, i32 0, i32 2
  %33 = load ptr, ptr %4, align 8, !tbaa !62
  %34 = call noundef ptr @_ZN4toku8locktree21get_lock_request_infoEv(ptr noundef nonnull align 8 dereferenceable(400) %33)
  %35 = getelementptr inbounds nuw %"struct.toku::lt_lock_request_info", ptr %34, i32 0, i32 6
  call void @_ZN4toku11lt_counters3addERKS0_(ptr noundef nonnull align 8 dereferenceable(40) %32, ptr noundef nonnull align 8 dereferenceable(40) %35)
  br label %36

36:                                               ; preds = %31, %21
  br label %37

37:                                               ; preds = %36, %17
  call void @_ZN4toku16locktree_manager12mutex_unlockEv(ptr noundef nonnull align 8 dereferenceable(392) %9)
  call void @llvm.lifetime.end.p0(i64 8, ptr %8) #17
  br label %38

38:                                               ; preds = %37, %2
  %39 = load i8, ptr %5, align 1, !tbaa !75, !range !49, !noundef !50
  %40 = trunc i8 %39 to i1
  br i1 %40, label %41, label %52

41:                                               ; preds = %38
  %42 = getelementptr inbounds nuw %"class.toku::locktree_manager", ptr %9, i32 0, i32 4
  %43 = load ptr, ptr %42, align 8, !tbaa !31
  %44 = icmp ne ptr %43, null
  br i1 %44, label %45, label %49

45:                                               ; preds = %41
  %46 = getelementptr inbounds nuw %"class.toku::locktree_manager", ptr %9, i32 0, i32 4
  %47 = load ptr, ptr %46, align 8, !tbaa !31
  %48 = load ptr, ptr %4, align 8, !tbaa !62
  call void %47(ptr noundef %48)
  br label %49

49:                                               ; preds = %45, %41
  %50 = load ptr, ptr %4, align 8, !tbaa !62
  call void @_ZN4toku8locktree7destroyEv(ptr noundef nonnull align 8 dereferenceable(400) %50)
  %51 = load ptr, ptr %4, align 8, !tbaa !62
  call void @_Z9toku_freePv(ptr noundef %51)
  br label %52

52:                                               ; preds = %49, %38
  call void @llvm.lifetime.end.p0(i64 4, ptr %7) #17
  call void @llvm.lifetime.end.p0(i64 8, ptr %6) #17
  call void @llvm.lifetime.end.p0(i64 1, ptr %5) #17
  ret void
}