; Function Attrs: mustprogress uwtable
define void @_ZN4toku16locktree_manager10release_ltEPNS_8locktreeE(ptr noundef nonnull align 8 dereferenceable(392) %0, ptr noundef nonnull %1) local_unnamed_addr #0 align 2 {
  %3 = alloca i32, align 4
  %4 = alloca ptr, align 8
  %5 = alloca %struct.DICTIONARY_ID, align 8
  %6 = alloca ptr, align 8
  %7 = alloca %struct.DICTIONARY_ID, align 8
  call void @llvm.lifetime.start.p0(i64 8, ptr nonnull %7) #14
  %8 = tail call i64 @_ZNK4toku8locktree11get_dict_idEv(ptr noundef nonnull align 8 dereferenceable(400) %1)
  store i64 %8, ptr %7, align 8
  %9 = tail call noundef i32 @_ZN4toku8locktree17release_referenceEv(ptr noundef nonnull align 8 dereferenceable(400) %1)
  %10 = icmp eq i32 %9, 0
  br i1 %10, label %11, label %.critedge

11:                                               ; preds = %2
  %12 = getelementptr inbounds nuw i8, ptr %0, i64 128
  %13 = tail call i32 @pthread_mutex_lock(ptr noundef nonnull %12) #14
  call void @llvm.lifetime.start.p0(i64 8, ptr nonnull %6) #14
  %14 = getelementptr inbounds nuw i8, ptr %0, i64 88
  %15 = call noundef i32 @_ZNK4toku3omtIPNS_8locktreeES2_Lb0EE9find_zeroI13DICTIONARY_IDTnPFiRKS2_RKT_EXadL_ZNS_16locktree_manager15find_by_dict_idES7_RKS5_EEEEiSA_PS2_Pj(ptr noundef nonnull align 8 dereferenceable(24) %14, ptr noundef nonnull align 8 dereferenceable(8) %7, ptr noundef nonnull %6, ptr noundef null)
  %16 = icmp eq i32 %15, 0
  %17 = load ptr, ptr %6, align 8
  call void @llvm.lifetime.end.p0(i64 8, ptr nonnull %6) #14
  %18 = icmp eq ptr %17, %1
  %19 = select i1 %16, i1 %18, i1 false
  br i1 %19, label %20, label %.critedge.critedge

20:                                               ; preds = %11
  %21 = call noundef i32 @_ZN4toku8locktree19get_reference_countEv(ptr noundef nonnull align 8 dereferenceable(400) %1)
  %22 = icmp eq i32 %21, 0
  br i1 %22, label %23, label %.critedge.critedge19

23:                                               ; preds = %20
  call void @llvm.lifetime.start.p0(i64 4, ptr nonnull %3) #14
  call void @llvm.lifetime.start.p0(i64 8, ptr nonnull %4) #14
  call void @llvm.lifetime.start.p0(i64 8, ptr nonnull %5) #14
  %24 = call i64 @_ZNK4toku8locktree11get_dict_idEv(ptr noundef nonnull align 8 dereferenceable(400) %1)
  store i64 %24, ptr %5, align 8
  %25 = call noundef i32 @_ZNK4toku3omtIPNS_8locktreeES2_Lb0EE9find_zeroI13DICTIONARY_IDTnPFiRKS2_RKT_EXadL_ZNS_16locktree_manager15find_by_dict_idES7_RKS5_EEEEiSA_PS2_Pj(ptr noundef nonnull align 8 dereferenceable(24) %14, ptr noundef nonnull align 8 dereferenceable(8) %5, ptr noundef nonnull %4, ptr noundef nonnull %3)
  call void @llvm.lifetime.end.p0(i64 8, ptr nonnull %5) #14
  %26 = load i32, ptr %3, align 4, !tbaa !14
  %27 = call noundef i32 @_ZN4toku3omtIPNS_8locktreeES2_Lb0EE9delete_atEj(ptr noundef nonnull align 8 dereferenceable(24) %14, i32 noundef %26)
  call void @llvm.lifetime.end.p0(i64 8, ptr nonnull %4) #14
  call void @llvm.lifetime.end.p0(i64 4, ptr nonnull %3) #14
  %28 = getelementptr inbounds nuw i8, ptr %0, i64 16
  %29 = call noundef ptr @_ZN4toku8locktree21get_lock_request_infoEv(ptr noundef nonnull align 8 dereferenceable(400) %1)
  %30 = getelementptr inbounds nuw i8, ptr %29, i64 56
  %31 = load i64, ptr %30, align 8, !tbaa !57
  %32 = load i64, ptr %28, align 8, !tbaa !57
  %33 = add i64 %32, %31
  store i64 %33, ptr %28, align 8, !tbaa !57
  %34 = getelementptr inbounds nuw i8, ptr %29, i64 64
  %35 = load i64, ptr %34, align 8, !tbaa !58
  %36 = getelementptr inbounds nuw i8, ptr %0, i64 24
  %37 = load i64, ptr %36, align 8, !tbaa !58
  %38 = add i64 %37, %35
  store i64 %38, ptr %36, align 8, !tbaa !58
  %39 = getelementptr inbounds nuw i8, ptr %29, i64 72
  %40 = load i64, ptr %39, align 8, !tbaa !59
  %41 = getelementptr inbounds nuw i8, ptr %0, i64 32
  %42 = load i64, ptr %41, align 8, !tbaa !59
  %43 = add i64 %42, %40
  store i64 %43, ptr %41, align 8, !tbaa !59
  %44 = getelementptr inbounds nuw i8, ptr %29, i64 80
  %45 = load i64, ptr %44, align 8, !tbaa !60
  %46 = getelementptr inbounds nuw i8, ptr %0, i64 40
  %47 = load i64, ptr %46, align 8, !tbaa !60
  %48 = add i64 %47, %45
  store i64 %48, ptr %46, align 8, !tbaa !60
  %49 = getelementptr inbounds nuw i8, ptr %29, i64 88
  %50 = load i64, ptr %49, align 8, !tbaa !61
  %51 = getelementptr inbounds nuw i8, ptr %0, i64 48
  %52 = load i64, ptr %51, align 8, !tbaa !61
  %53 = add i64 %52, %50
  store i64 %53, ptr %51, align 8, !tbaa !61
  %54 = call i32 @pthread_mutex_unlock(ptr noundef nonnull %12) #14
  %55 = getelementptr inbounds nuw i8, ptr %0, i64 64
  %56 = load ptr, ptr %55, align 8, !tbaa !38
  %.not16 = icmp eq ptr %56, null
  br i1 %.not16, label %58, label %57

57:                                               ; preds = %23
  call void %56(ptr noundef nonnull %1)
  br label %58

58:                                               ; preds = %57, %23
  call void @_ZN4toku8locktree7destroyEv(ptr noundef nonnull align 8 dereferenceable(400) %1)
  call void @_Z9toku_freePv(ptr noundef nonnull %1)
  br label %.critedge

.critedge.critedge:                               ; preds = %11
  %59 = call i32 @pthread_mutex_unlock(ptr noundef nonnull %12) #14
  br label %.critedge

.critedge.critedge19:                             ; preds = %20
  %60 = getelementptr inbounds nuw i8, ptr %0, i64 16
  %61 = call noundef ptr @_ZN4toku8locktree21get_lock_request_infoEv(ptr noundef nonnull align 8 dereferenceable(400) %1)
  %62 = getelementptr inbounds nuw i8, ptr %61, i64 56
  %63 = load i64, ptr %62, align 8, !tbaa !57
  %64 = load i64, ptr %60, align 8, !tbaa !57
  %65 = add i64 %64, %63
  store i64 %65, ptr %60, align 8, !tbaa !57
  %66 = getelementptr inbounds nuw i8, ptr %61, i64 64
  %67 = load i64, ptr %66, align 8, !tbaa !58
  %68 = getelementptr inbounds nuw i8, ptr %0, i64 24
  %69 = load i64, ptr %68, align 8, !tbaa !58
  %70 = add i64 %69, %67
  store i64 %70, ptr %68, align 8, !tbaa !58
  %71 = getelementptr inbounds nuw i8, ptr %61, i64 72
  %72 = load i64, ptr %71, align 8, !tbaa !59
  %73 = getelementptr inbounds nuw i8, ptr %0, i64 32
  %74 = load i64, ptr %73, align 8, !tbaa !59
  %75 = add i64 %74, %72
  store i64 %75, ptr %73, align 8, !tbaa !59
  %76 = getelementptr inbounds nuw i8, ptr %61, i64 80
  %77 = load i64, ptr %76, align 8, !tbaa !60
  %78 = getelementptr inbounds nuw i8, ptr %0, i64 40
  %79 = load i64, ptr %78, align 8, !tbaa !60
  %80 = add i64 %79, %77
  store i64 %80, ptr %78, align 8, !tbaa !60
  %81 = getelementptr inbounds nuw i8, ptr %61, i64 88
  %82 = load i64, ptr %81, align 8, !tbaa !61
  %83 = getelementptr inbounds nuw i8, ptr %0, i64 48
  %84 = load i64, ptr %83, align 8, !tbaa !61
  %85 = add i64 %84, %82
  store i64 %85, ptr %83, align 8, !tbaa !61
  %86 = call i32 @pthread_mutex_unlock(ptr noundef nonnull %12) #14
  br label %.critedge

.critedge:                                        ; preds = %.critedge.critedge19, %.critedge.critedge, %2, %58
  call void @llvm.lifetime.end.p0(i64 8, ptr nonnull %7) #14
  ret void
}